target datalayout = "e-m:e-p270:32:32-p271:32:32-p272:64:64-i64:64-i128:128-f80:128-n8:16:32:64-S128"
target triple = "x86_64-unknown-linux-gnu"

%"struct.facebook::velox::StlAllocator" = type { ptr }
%"struct.facebook::velox::StlAllocator.2" = type { ptr }
%"class.facebook::velox::common::hll::DenseHll" = type { i8, i8, i32, %"class.std::vector", i16, %"class.std::vector.0", %"class.std::vector" }
%"class.std::vector.0" = type { %"struct.std::_Vector_base.1" }
%"struct.std::_Vector_base.1" = type { %"struct.std::_Vector_base<unsigned short, facebook::velox::StlAllocator<unsigned short>>::_Vector_impl" }
%"struct.std::_Vector_base<unsigned short, facebook::velox::StlAllocator<unsigned short>>::_Vector_impl" = type { %"struct.facebook::velox::StlAllocator.2", %"struct.std::_Vector_base<unsigned short, facebook::velox::StlAllocator<unsigned short>>::_Vector_impl_data" }
%"struct.std::_Vector_base<unsigned short, facebook::velox::StlAllocator<unsigned short>>::_Vector_impl_data" = type { ptr, ptr, ptr }
%"class.std::vector" = type { %"struct.std::_Vector_base" }
%"struct.std::_Vector_base" = type { %"struct.std::_Vector_base<signed char, facebook::velox::StlAllocator<signed char>>::_Vector_impl" }
%"struct.std::_Vector_base<signed char, facebook::velox::StlAllocator<signed char>>::_Vector_impl" = type { %"struct.facebook::velox::StlAllocator", %"struct.std::_Vector_base<signed char, facebook::velox::StlAllocator<signed char>>::_Vector_impl_data" }
%"struct.std::_Vector_base<signed char, facebook::velox::StlAllocator<signed char>>::_Vector_impl_data" = type { ptr, ptr, ptr }
%"struct.facebook::velox::common::InputByteStream" = type <{ ptr, i32, [4 x i8] }>

; Function Attrs: mustprogress nounwind uwtable
define linkonce_odr noundef ptr @_ZN8facebook5velox6common15InputByteStream4readItEEPKT_i(ptr noundef nonnull align 8 dereferenceable(12) %this, i32 noundef %size) #1 comdat align 2 {
entry:
  %this.addr = alloca ptr, align 8
  %size.addr = alloca i32, align 4
  %result = alloca ptr, align 8
  store ptr %this, ptr %this.addr, align 8
  store i32 %size, ptr %size.addr, align 4
  %this1 = load ptr, ptr %this.addr, align 8
  %data_ = getelementptr inbounds %"struct.facebook::velox::common::InputByteStream", ptr %this1, i32 0, i32 0
  %0 = load ptr, ptr %data_, align 8
  %offset_ = getelementptr inbounds %"struct.facebook::velox::common::InputByteStream", ptr %this1, i32 0, i32 1
  %1 = load i32, ptr %offset_, align 8
  %idx.ext = sext i32 %1 to i64
  %add.ptr = getelementptr inbounds i8, ptr %0, i64 %idx.ext
  store ptr %add.ptr, ptr %result, align 8
  %2 = load i32, ptr %size.addr, align 4
  %conv = sext i32 %2 to i64
  %mul = mul i64 %conv, 2
  %offset_2 = getelementptr inbounds %"struct.facebook::velox::common::InputByteStream", ptr %this1, i32 0, i32 1
  %3 = load i32, ptr %offset_2, align 8
  %conv3 = sext i32 %3 to i64
  %add = add i64 %conv3, %mul
  %conv4 = trunc i64 %add to i32
  store i32 %conv4, ptr %offset_2, align 8
  %4 = load ptr, ptr %result, align 8
  ret ptr %4
}

; Function Attrs: mustprogress nounwind uwtable
define linkonce_odr noundef signext i16 @_ZN8facebook5velox6common15InputByteStream4readIsEET_v(ptr noundef nonnull align 8 dereferenceable(12) %this) #1 comdat align 2 {
entry:
  %this.addr = alloca ptr, align 8
  %value = alloca i16, align 2
  store ptr %this, ptr %this.addr, align 8
  %this1 = load ptr, ptr %this.addr, align 8
  %data_ = getelementptr inbounds %"struct.facebook::velox::common::InputByteStream", ptr %this1, i32 0, i32 0
  %0 = load ptr, ptr %data_, align 8
  %offset_ = getelementptr inbounds %"struct.facebook::velox::common::InputByteStream", ptr %this1, i32 0, i32 1
  %1 = load i32, ptr %offset_, align 8
  %idx.ext = sext i32 %1 to i64
  %add.ptr = getelementptr inbounds i8, ptr %0, i64 %idx.ext
  %2 = load i16, ptr %add.ptr, align 2
  store i16 %2, ptr %value, align 2
  %offset_2 = getelementptr inbounds %"struct.facebook::velox::common::InputByteStream", ptr %this1, i32 0, i32 1
  %3 = load i32, ptr %offset_2, align 8
  %conv = sext i32 %3 to i64
  %add = add i64 %conv, 2
  %conv3 = trunc i64 %add to i32
  store i32 %conv3, ptr %offset_2, align 8
  %4 = load i16, ptr %value, align 2
  ret i16 %4
}

; Function Attrs: mustprogress nounwind uwtable
define linkonce_odr noundef ptr @_ZN8facebook5velox6common15InputByteStream4readIaEEPKT_i(ptr noundef nonnull align 8 dereferenceable(12) %this, i32 noundef %size) #1 comdat align 2 {
entry:
  %this.addr = alloca ptr, align 8
  %size.addr = alloca i32, align 4
  %result = alloca ptr, align 8
  store ptr %this, ptr %this.addr, align 8
  store i32 %size, ptr %size.addr, align 4
  %this1 = load ptr, ptr %this.addr, align 8
  %data_ = getelementptr inbounds %"struct.facebook::velox::common::InputByteStream", ptr %this1, i32 0, i32 0
  %0 = load ptr, ptr %data_, align 8
  %offset_ = getelementptr inbounds %"struct.facebook::velox::common::InputByteStream", ptr %this1, i32 0, i32 1
  %1 = load i32, ptr %offset_, align 8
  %idx.ext = sext i32 %1 to i64
  %add.ptr = getelementptr inbounds i8, ptr %0, i64 %idx.ext
  store ptr %add.ptr, ptr %result, align 8
  %2 = load i32, ptr %size.addr, align 4
  %conv = sext i32 %2 to i64
  %mul = mul i64 %conv, 1
  %offset_2 = getelementptr inbounds %"struct.facebook::velox::common::InputByteStream", ptr %this1, i32 0, i32 1
  %3 = load i32, ptr %offset_2, align 8
  %conv3 = sext i32 %3 to i64
  %add = add i64 %conv3, %mul
  %conv4 = trunc i64 %add to i32
  store i32 %conv4, ptr %offset_2, align 8
  %4 = load ptr, ptr %result, align 8
  ret ptr %4
}

; Function Attrs: mustprogress nounwind uwtable
define linkonce_odr noundef signext i8 @_ZN8facebook5velox6common15InputByteStream4readIaEET_v(ptr noundef nonnull align 8 dereferenceable(12) %this) #1 comdat align 2 {
entry:
  %this.addr = alloca ptr, align 8
  %value = alloca i8, align 1
  store ptr %this, ptr %this.addr, align 8
  %this1 = load ptr, ptr %this.addr, align 8
  %data_ = getelementptr inbounds %"struct.facebook::velox::common::InputByteStream", ptr %this1, i32 0, i32 0
  %0 = load ptr, ptr %data_, align 8
  %offset_ = getelementptr inbounds %"struct.facebook::velox::common::InputByteStream", ptr %this1, i32 0, i32 1
  %1 = load i32, ptr %offset_, align 8
  %idx.ext = sext i32 %1 to i64
  %add.ptr = getelementptr inbounds i8, ptr %0, i64 %idx.ext
  %2 = load i8, ptr %add.ptr, align 1
  store i8 %2, ptr %value, align 1
  %offset_2 = getelementptr inbounds %"struct.facebook::velox::common::InputByteStream", ptr %this1, i32 0, i32 1
  %3 = load i32, ptr %offset_2, align 8
  %conv = sext i32 %3 to i64
  %add = add i64 %conv, 1
  %conv3 = trunc i64 %add to i32
  store i32 %conv3, ptr %offset_2, align 8
  %4 = load i8, ptr %value, align 1
  ret i8 %4
}

; Function Attrs: mustprogress nounwind uwtable
define linkonce_odr void @_ZN8facebook5velox6common15InputByteStreamC2EPKc(ptr noundef nonnull align 8 dereferenceable(12) %this, ptr noundef %data) unnamed_addr #1 comdat align 2 {
entry:
  %this.addr = alloca ptr, align 8
  %data.addr = alloca ptr, align 8
  store ptr %this, ptr %this.addr, align 8
  store ptr %data, ptr %data.addr, align 8
  %this1 = load ptr, ptr %this.addr, align 8
  %data_ = getelementptr inbounds %"struct.facebook::velox::common::InputByteStream", ptr %this1, i32 0, i32 0
  %0 = load ptr, ptr %data.addr, align 8
  store ptr %0, ptr %data_, align 8
  %offset_ = getelementptr inbounds %"struct.facebook::velox::common::InputByteStream", ptr %this1, i32 0, i32 1
  store i32 0, ptr %offset_, align 8
  ret void
}

; Function Attrs: mustprogress uwtable
define void @_ZN8facebook5velox6common3hll8DenseHll9mergeWithEPKc(ptr noundef nonnull align 8 dereferenceable(112) %this, ptr noundef %serialized) #0 align 2 {
entry:
  %this.addr = alloca ptr, align 8
  %serialized.addr = alloca ptr, align 8
  %stream = alloca %"struct.facebook::velox::common::InputByteStream", align 8
  %version = alloca i8, align 1
  %indexBitLength = alloca i8, align 1
  %baseline = alloca i8, align 1
  %numBuckets = alloca i32, align 4
  %deltas = alloca ptr, align 8
  %overflows = alloca i16, align 2
  %overflowBuckets = alloca ptr, align 8
  %overflowValues = alloca ptr, align 8
  store ptr %this, ptr %this.addr, align 8
  store ptr %serialized, ptr %serialized.addr, align 8
  %this1 = load ptr, ptr %this.addr, align 8
  %0 = load ptr, ptr %serialized.addr, align 8
  call void @_ZN8facebook5velox6common15InputByteStreamC2EPKc(ptr noundef nonnull align 8 dereferenceable(12) %stream, ptr noundef %0)
  %call = call noundef signext i8 @_ZN8facebook5velox6common15InputByteStream4readIaEET_v(ptr noundef nonnull align 8 dereferenceable(12) %stream)
  store i8 %call, ptr %version, align 1
  %1 = load i8, ptr %version, align 1
  %conv = sext i8 %1 to i32
  %cmp = icmp eq i32 3, %conv
  %lnot = xor i1 %cmp, true
  br i1 %lnot, label %if.then, label %if.end

if.then:                                          ; preds = %entry
  call void @llvm.trap()
  br label %if.end

if.end:                                           ; preds = %if.then, %entry
  %call3 = call noundef signext i8 @_ZN8facebook5velox6common15InputByteStream4readIaEET_v(ptr noundef nonnull align 8 dereferenceable(12) %stream)
  store i8 %call3, ptr %indexBitLength, align 1
  %indexBitLength_ = getelementptr inbounds %"class.facebook::velox::common::hll::DenseHll", ptr %this1, i32 0, i32 0
  %2 = load i8, ptr %indexBitLength_, align 8
  %conv4 = sext i8 %2 to i32
  %3 = load i8, ptr %indexBitLength, align 1
  %conv5 = sext i8 %3 to i32
  %cmp6 = icmp eq i32 %conv4, %conv5
  %lnot7 = xor i1 %cmp6, true
  br i1 %lnot7, label %if.then9, label %if.end10

if.then9:                                         ; preds = %if.end
  call void @llvm.trap()
  br label %if.end10

if.end10:                                         ; preds = %if.then9, %if.end
  %call11 = call noundef signext i8 @_ZN8facebook5velox6common15InputByteStream4readIaEET_v(ptr noundef nonnull align 8 dereferenceable(12) %stream)
  store i8 %call11, ptr %baseline, align 1
  %indexBitLength_12 = getelementptr inbounds %"class.facebook::velox::common::hll::DenseHll", ptr %this1, i32 0, i32 0
  %4 = load i8, ptr %indexBitLength_12, align 8
  %conv13 = sext i8 %4 to i32
  %shl = shl i32 1, %conv13
  store i32 %shl, ptr %numBuckets, align 4
  %5 = load i32, ptr %numBuckets, align 4
  %div = sdiv i32 %5, 2
  %call14 = call noundef ptr @_ZN8facebook5velox6common15InputByteStream4readIaEEPKT_i(ptr noundef nonnull align 8 dereferenceable(12) %stream, i32 noundef %div)
  store ptr %call14, ptr %deltas, align 8
  %call15 = call noundef signext i16 @_ZN8facebook5velox6common15InputByteStream4readIsEET_v(ptr noundef nonnull align 8 dereferenceable(12) %stream)
  store i16 %call15, ptr %overflows, align 2
  %6 = load i16, ptr %overflows, align 2
  %tobool = icmp ne i16 %6, 0
  br i1 %tobool, label %cond.true, label %cond.false

cond.true:                                        ; preds = %if.end10
  %7 = load i16, ptr %overflows, align 2
  %conv16 = sext i16 %7 to i32
  %call17 = call noundef ptr @_ZN8facebook5velox6common15InputByteStream4readItEEPKT_i(ptr noundef nonnull align 8 dereferenceable(12) %stream, i32 noundef %conv16)
  br label %cond.end

cond.false:                                       ; preds = %if.end10
  br label %cond.end

cond.end:                                         ; preds = %cond.false, %cond.true
  %cond = phi ptr [ %call17, %cond.true ], [ null, %cond.false ]
  store ptr %cond, ptr %overflowBuckets, align 8
  %8 = load i16, ptr %overflows, align 2
  %tobool18 = icmp ne i16 %8, 0
  br i1 %tobool18, label %cond.true19, label %cond.false22

cond.true19:                                      ; preds = %cond.end
  %9 = load i16, ptr %overflows, align 2
  %conv20 = sext i16 %9 to i32
  %call21 = call noundef ptr @_ZN8facebook5velox6common15InputByteStream4readIaEEPKT_i(ptr noundef nonnull align 8 dereferenceable(12) %stream, i32 noundef %conv20)
  br label %cond.end23

cond.false22:                                     ; preds = %cond.end
  br label %cond.end23

cond.end23:                                       ; preds = %cond.false22, %cond.true19
  %cond24 = phi ptr [ %call21, %cond.true19 ], [ null, %cond.false22 ]
  store ptr %cond24, ptr %overflowValues, align 8
  %10 = load i8, ptr %baseline, align 1
  %11 = load ptr, ptr %deltas, align 8
  %12 = load i16, ptr %overflows, align 2
  %13 = load ptr, ptr %overflowBuckets, align 8
  %14 = load ptr, ptr %overflowValues, align 8
  call void @_ZN8facebook5velox6common3hll8DenseHll9mergeWithEaPKasPKtS5_(ptr noundef nonnull align 8 dereferenceable(112) %this1, i8 noundef signext %10, ptr noundef %11, i16 noundef signext %12, ptr noundef %13, ptr noundef %14)
  ret void
}