; Function Attrs: mustprogress uwtable
define void @_ZN8facebook5velox6common3hll8DenseHll9mergeWithEPKc(ptr noundef nonnull align 8 captures(none) dereferenceable(112) %this, ptr noundef readonly captures(none) %serialized) local_unnamed_addr #0 align 2 {
entry:
  %0 = load i8, ptr %serialized, align 1
  %cmp.not = icmp eq i8 %0, 3
  br i1 %cmp.not, label %if.end, label %if.then

if.then:                                          ; preds = %entry
  tail call void @llvm.trap()
  unreachable

if.end:                                           ; preds = %entry
  %add.ptr.i9 = getelementptr inbounds nuw i8, ptr %serialized, i64 1
  %1 = load i8, ptr %add.ptr.i9, align 1
  %2 = load i8, ptr %this, align 8
  %cmp6.not = icmp eq i8 %2, %1
  br i1 %cmp6.not, label %if.end10, label %if.then9

if.then9:                                         ; preds = %if.end
  tail call void @llvm.trap()
  unreachable

if.end10:                                         ; preds = %if.end
  %add.ptr.i13 = getelementptr inbounds nuw i8, ptr %serialized, i64 2
  %3 = load i8, ptr %add.ptr.i13, align 1
  %conv135 = zext nneg i8 %1 to i32
  %shl = shl nuw i32 1, %conv135
  %div = sdiv i32 %shl, 2
  %add.ptr.i17 = getelementptr inbounds nuw i8, ptr %serialized, i64 3
  %4 = sext i32 %div to i64
  %5 = getelementptr i8, ptr %serialized, i64 %4
  %add.ptr.i21 = getelementptr i8, ptr %5, i64 3
  %6 = load i16, ptr %add.ptr.i21, align 2
  %tobool.not = icmp eq i16 %6, 0
  br i1 %tobool.not, label %cond.end.split, label %cond.true19

cond.end.split:                                   ; preds = %if.end10
  tail call void @_ZN8facebook5velox6common3hll8DenseHll9mergeWithEaPKasPKtS5_(ptr noundef nonnull align 8 dereferenceable(112) %this, i8 noundef signext %3, ptr noundef nonnull %add.ptr.i17, i16 noundef signext 0, ptr noundef null, ptr noundef null)
  br label %cond.end23

cond.true19:                                      ; preds = %if.end10
  %add.i22 = add nsw i32 %div, 5
  %conv16 = sext i16 %6 to i32
  %idx.ext.i24 = sext i32 %add.i22 to i64
  %add.ptr.i25 = getelementptr inbounds i8, ptr %serialized, i64 %idx.ext.i24
  %mul.i = shl nsw i32 %conv16, 1
  %add.i26 = add nsw i32 %mul.i, %add.i22
  %idx.ext.i28 = sext i32 %add.i26 to i64
  %add.ptr.i29 = getelementptr inbounds i8, ptr %serialized, i64 %idx.ext.i28
  tail call void @_ZN8facebook5velox6common3hll8DenseHll9mergeWithEaPKasPKtS5_(ptr noundef nonnull align 8 dereferenceable(112) %this, i8 noundef signext %3, ptr noundef nonnull %add.ptr.i17, i16 noundef signext %6, ptr noundef nonnull %add.ptr.i25, ptr noundef nonnull %add.ptr.i29)
  br label %cond.end23

cond.end23:                                       ; preds = %cond.end.split, %cond.true19
  ret void
}